target datalayout = "e-m:e-p270:32:32-p271:32:32-p272:64:64-i64:64-i128:128-f80:128-n8:16:32:64-S128"
target triple = "x86_64-pc-linux-gnu"

%struct._typeobject = type { %struct.PyVarObject, ptr, i64, i64, ptr, i64, ptr, ptr, ptr, ptr, ptr, ptr, ptr, ptr, ptr, ptr, ptr, ptr, ptr, i64, ptr, ptr, ptr, ptr, i64, ptr, ptr, ptr, ptr, ptr, ptr, ptr, ptr, ptr, i64, ptr, ptr, ptr, ptr, ptr, ptr, ptr, ptr, ptr, ptr, ptr, i32, ptr, ptr, i8, i16 }
%struct.PyVarObject = type { %struct._object, i64 }
%struct._object = type { %union.anon, ptr }
%union.anon = type { i64 }
%struct.anon = type { i32, i32 }
%struct.ProfilerObject = type { %struct._object, ptr, ptr, ptr, i32, ptr, double, i32, ptr }
%struct.PyCFunctionObject = type { %struct._object, ptr, ptr, ptr, ptr, ptr }

@PyCFunction_Type = external global %struct._typeobject, align 8
@PyMethodDescr_Type = external global %struct._typeobject, align 8
@.str.12 = private unnamed_addr constant [16 x i8] c"_ccall_callback\00", align 1
@_Py_NoneStruct = external global %struct._object, align 8

; Function Attrs: inlinehint nounwind uwtable
define internal i32 @Py_IS_TYPE(ptr noundef %0, ptr noundef %1) #1 {
  %3 = alloca ptr, align 8
  %4 = alloca ptr, align 8
  store ptr %0, ptr %3, align 8, !tbaa !3
  store ptr %1, ptr %4, align 8, !tbaa !20
  %5 = load ptr, ptr %3, align 8, !tbaa !3
  %6 = call ptr @_Py_TYPE(ptr noundef %5)
  %7 = load ptr, ptr %4, align 8, !tbaa !20
  %8 = icmp eq ptr %6, %7
  %9 = zext i1 %8 to i32
  ret i32 %9
}

; Function Attrs: alwaysinline nounwind uwtable
define internal i32 @_Py_IsImmortal(ptr noundef %0) #2 {
  %2 = alloca ptr, align 8
  store ptr %0, ptr %2, align 8, !tbaa !3
  %3 = load ptr, ptr %2, align 8, !tbaa !3
  %4 = getelementptr inbounds nuw %struct._object, ptr %3, i32 0, i32 0
  %5 = getelementptr inbounds nuw %struct.anon, ptr %4, i32 0, i32 0
  %6 = load i32, ptr %5, align 8, !tbaa !21
  %7 = icmp slt i32 %6, 0
  %8 = zext i1 %7 to i32
  ret i32 %8
}

; Function Attrs: inlinehint nounwind uwtable
define internal ptr @_Py_TYPE(ptr noundef %0) #1 {
  %2 = alloca ptr, align 8
  store ptr %0, ptr %2, align 8, !tbaa !3
  %3 = load ptr, ptr %2, align 8, !tbaa !3
  %4 = getelementptr inbounds nuw %struct._object, ptr %3, i32 0, i32 1
  %5 = load ptr, ptr %4, align 8, !tbaa !23
  ret ptr %5
}

; Function Attrs: alwaysinline nounwind uwtable
define internal void @Py_INCREF(ptr noundef %0) #2 {
  %2 = alloca ptr, align 8
  %3 = alloca i32, align 4
  %4 = alloca i32, align 4
  store ptr %0, ptr %2, align 8, !tbaa !3
  call void @llvm.lifetime.start.p0(i64 4, ptr %3) #6
  %5 = load ptr, ptr %2, align 8, !tbaa !3
  %6 = getelementptr inbounds nuw %struct._object, ptr %5, i32 0, i32 0
  %7 = getelementptr inbounds nuw %struct.anon, ptr %6, i32 0, i32 0
  %8 = load i32, ptr %7, align 8, !tbaa !21
  store i32 %8, ptr %3, align 4, !tbaa !22
  %9 = load i32, ptr %3, align 4, !tbaa !22
  %10 = icmp slt i32 %9, 0
  br i1 %10, label %11, label %12

11:                                               ; preds = %1
  store i32 1, ptr %4, align 4
  br label %18

12:                                               ; preds = %1
  %13 = load i32, ptr %3, align 4, !tbaa !22
  %14 = add i32 %13, 1
  %15 = load ptr, ptr %2, align 8, !tbaa !3
  %16 = getelementptr inbounds nuw %struct._object, ptr %15, i32 0, i32 0
  %17 = getelementptr inbounds nuw %struct.anon, ptr %16, i32 0, i32 0
  store i32 %14, ptr %17, align 8, !tbaa !21
  store i32 0, ptr %4, align 4
  br label %18

18:                                               ; preds = %12, %11
  call void @llvm.lifetime.end.p0(i64 4, ptr %3) #6
  %19 = load i32, ptr %4, align 4
  switch i32 %19, label %21 [
    i32 0, label %20
    i32 1, label %20
  ]

20:                                               ; preds = %18, %18
  ret void

21:                                               ; preds = %18
  unreachable
}

; Function Attrs: inlinehint nounwind uwtable
define internal i32 @PyObject_TypeCheck(ptr noundef %0, ptr noundef %1) #1 {
  %3 = alloca ptr, align 8
  %4 = alloca ptr, align 8
  store ptr %0, ptr %3, align 8, !tbaa !3
  store ptr %1, ptr %4, align 8, !tbaa !20
  %5 = load ptr, ptr %3, align 8, !tbaa !3
  %6 = load ptr, ptr %4, align 8, !tbaa !20
  %7 = call i32 @Py_IS_TYPE(ptr noundef %5, ptr noundef %6)
  %8 = icmp ne i32 %7, 0
  br i1 %8, label %15, label %9

9:                                                ; preds = %2
  %10 = load ptr, ptr %3, align 8, !tbaa !3
  %11 = call ptr @_Py_TYPE(ptr noundef %10)
  %12 = load ptr, ptr %4, align 8, !tbaa !20
  %13 = call i32 @PyType_IsSubtype(ptr noundef %11, ptr noundef %12)
  %14 = icmp ne i32 %13, 0
  br label %15

15:                                               ; preds = %9, %2
  %16 = phi i1 [ true, %2 ], [ %14, %9 ]
  %17 = zext i1 %16 to i32
  ret i32 %17
}

; Function Attrs: alwaysinline nounwind uwtable
define internal void @Py_DECREF(ptr noundef %0) #2 {
  %2 = alloca ptr, align 8
  store ptr %0, ptr %2, align 8, !tbaa !3
  %3 = load ptr, ptr %2, align 8, !tbaa !3
  %4 = call i32 @_Py_IsImmortal(ptr noundef %3)
  %5 = icmp ne i32 %4, 0
  br i1 %5, label %6, label %7

6:                                                ; preds = %1
  br label %16

7:                                                ; preds = %1
  %8 = load ptr, ptr %2, align 8, !tbaa !3
  %9 = getelementptr inbounds nuw %struct._object, ptr %8, i32 0, i32 0
  %10 = getelementptr inbounds nuw %struct.anon, ptr %9, i32 0, i32 0
  %11 = load i32, ptr %10, align 8, !tbaa !21
  %12 = add i32 %11, -1
  store i32 %12, ptr %10, align 8, !tbaa !21
  %13 = icmp eq i32 %12, 0
  br i1 %13, label %14, label %16

14:                                               ; preds = %7
  %15 = load ptr, ptr %2, align 8, !tbaa !3
  call void @_Py_Dealloc(ptr noundef %15)
  br label %16

16:                                               ; preds = %6, %14, %7
  ret void
}

; Function Attrs: nounwind uwtable
define hidden ptr @get_cfunc_from_callable(ptr noundef %0, ptr noundef %1, ptr noundef %2) #0 {
  %4 = alloca ptr, align 8
  %5 = alloca ptr, align 8
  %6 = alloca ptr, align 8
  %7 = alloca ptr, align 8
  %8 = alloca ptr, align 8
  %9 = alloca i32, align 4
  store ptr %0, ptr %5, align 8, !tbaa !3
  store ptr %1, ptr %6, align 8, !tbaa !3
  store ptr %2, ptr %7, align 8, !tbaa !3
  %10 = load ptr, ptr %5, align 8, !tbaa !3
  %11 = call i32 @PyObject_TypeCheck(ptr noundef %10, ptr noundef @PyCFunction_Type)
  %12 = icmp ne i32 %11, 0
  br i1 %12, label %13, label %16

13:                                               ; preds = %3
  %14 = load ptr, ptr %5, align 8, !tbaa !3
  call void @Py_INCREF(ptr noundef %14)
  %15 = load ptr, ptr %5, align 8, !tbaa !3
  store ptr %15, ptr %4, align 8
  br label %49

16:                                               ; preds = %3
  %17 = load ptr, ptr %5, align 8, !tbaa !3
  %18 = call ptr @_Py_TYPE(ptr noundef %17)
  %19 = icmp eq ptr %18, @PyMethodDescr_Type
  br i1 %19, label %20, label %48

20:                                               ; preds = %16
  %21 = load ptr, ptr %6, align 8, !tbaa !3
  %22 = load ptr, ptr %7, align 8, !tbaa !3
  %23 = icmp eq ptr %21, %22
  br i1 %23, label %24, label %25

24:                                               ; preds = %20
  store ptr null, ptr %4, align 8
  br label %49

25:                                               ; preds = %20
  call void @llvm.lifetime.start.p0(i64 8, ptr %8) #6
  %26 = load ptr, ptr %5, align 8, !tbaa !3
  %27 = call ptr @_Py_TYPE(ptr noundef %26)
  %28 = getelementptr inbounds nuw %struct._typeobject, ptr %27, i32 0, i32 32
  %29 = load ptr, ptr %28, align 8, !tbaa !8
  %30 = load ptr, ptr %5, align 8, !tbaa !3
  %31 = load ptr, ptr %6, align 8, !tbaa !3
  %32 = load ptr, ptr %6, align 8, !tbaa !3
  %33 = call ptr @_Py_TYPE(ptr noundef %32)
  %34 = call ptr %29(ptr noundef %30, ptr noundef %31, ptr noundef %33)
  store ptr %34, ptr %8, align 8, !tbaa !3
  %35 = load ptr, ptr %8, align 8, !tbaa !3
  %36 = icmp eq ptr %35, null
  br i1 %36, label %37, label %38

37:                                               ; preds = %25
  store ptr null, ptr %4, align 8
  store i32 1, ptr %9, align 4
  br label %45

38:                                               ; preds = %25
  %39 = load ptr, ptr %8, align 8, !tbaa !3
  %40 = call i32 @PyObject_TypeCheck(ptr noundef %39, ptr noundef @PyCFunction_Type)
  %41 = icmp ne i32 %40, 0
  br i1 %41, label %42, label %44

42:                                               ; preds = %38
  %43 = load ptr, ptr %8, align 8, !tbaa !3
  store ptr %43, ptr %4, align 8
  store i32 1, ptr %9, align 4
  br label %45

44:                                               ; preds = %38
  store i32 0, ptr %9, align 4
  br label %45

45:                                               ; preds = %44, %42, %37
  call void @llvm.lifetime.end.p0(i64 8, ptr %8) #6
  %46 = load i32, ptr %9, align 4
  switch i32 %46, label %51 [
    i32 0, label %47
    i32 1, label %49
  ]

47:                                               ; preds = %45
  br label %48

48:                                               ; preds = %47, %16
  store ptr null, ptr %4, align 8
  br label %49

49:                                               ; preds = %48, %45, %24, %13
  %50 = load ptr, ptr %4, align 8
  ret ptr %50

51:                                               ; preds = %45
  unreachable
}

; Function Attrs: nounwind uwtable
define internal ptr @_lsprof_Profiler__ccall_callback_impl(ptr noundef %0, ptr noundef %1, ptr noundef %2, ptr noundef %3, ptr noundef %4) #0 {
  %6 = alloca ptr, align 8
  %7 = alloca ptr, align 8
  %8 = alloca ptr, align 8
  %9 = alloca ptr, align 8
  %10 = alloca ptr, align 8
  %11 = alloca ptr, align 8
  store ptr %0, ptr %6, align 8, !tbaa !24
  store ptr %1, ptr %7, align 8, !tbaa !3
  store ptr %2, ptr %8, align 8, !tbaa !3
  store ptr %3, ptr %9, align 8, !tbaa !3
  store ptr %4, ptr %10, align 8, !tbaa !3
  %12 = load ptr, ptr %6, align 8, !tbaa !24
  %13 = getelementptr inbounds nuw %struct.ProfilerObject, ptr %12, i32 0, i32 4
  %14 = load i32, ptr %13, align 8, !tbaa !31
  %15 = and i32 %14, 4
  %16 = icmp ne i32 %15, 0
  br i1 %16, label %17, label %34

17:                                               ; preds = %5
  call void @llvm.lifetime.start.p0(i64 8, ptr %11) #6
  %18 = load ptr, ptr %9, align 8, !tbaa !3
  %19 = load ptr, ptr %10, align 8, !tbaa !3
  %20 = load ptr, ptr %6, align 8, !tbaa !24
  %21 = getelementptr inbounds nuw %struct.ProfilerObject, ptr %20, i32 0, i32 8
  %22 = load ptr, ptr %21, align 8, !tbaa !113
  %23 = call ptr @get_cfunc_from_callable(ptr noundef %18, ptr noundef %19, ptr noundef %22)
  store ptr %23, ptr %11, align 8, !tbaa !3
  %24 = load ptr, ptr %11, align 8, !tbaa !3
  %25 = icmp ne ptr %24, null
  br i1 %25, label %26, label %33

26:                                               ; preds = %17
  %27 = load ptr, ptr %6, align 8, !tbaa !24
  %28 = load ptr, ptr %11, align 8, !tbaa !3
  %29 = getelementptr inbounds nuw %struct.PyCFunctionObject, ptr %28, i32 0, i32 1
  %30 = load ptr, ptr %29, align 8, !tbaa !110
  %31 = load ptr, ptr %11, align 8, !tbaa !3
  call void @ptrace_enter_call(ptr noundef %27, ptr noundef %30, ptr noundef %31)
  %32 = load ptr, ptr %11, align 8, !tbaa !3
  call void @Py_DECREF(ptr noundef %32)
  br label %33

33:                                               ; preds = %26, %17
  call void @llvm.lifetime.end.p0(i64 8, ptr %11) #6
  br label %34

34:                                               ; preds = %33, %5
  ret ptr @_Py_NoneStruct
}

; Function Attrs: nounwind uwtable
define internal ptr @_lsprof_Profiler__ccall_callback(ptr noundef %0, ptr noundef %1, i64 noundef %2) #0 {
  %4 = alloca ptr, align 8
  %5 = alloca ptr, align 8
  %6 = alloca i64, align 8
  %7 = alloca ptr, align 8
  %8 = alloca ptr, align 8
  %9 = alloca ptr, align 8
  %10 = alloca ptr, align 8
  %11 = alloca ptr, align 8
  store ptr %0, ptr %4, align 8, !tbaa !3
  store ptr %1, ptr %5, align 8, !tbaa !42
  store i64 %2, ptr %6, align 8, !tbaa !40
  call void @llvm.lifetime.start.p0(i64 8, ptr %7) #6
  store ptr null, ptr %7, align 8, !tbaa !3
  call void @llvm.lifetime.start.p0(i64 8, ptr %8) #6
  call void @llvm.lifetime.start.p0(i64 8, ptr %9) #6
  call void @llvm.lifetime.start.p0(i64 8, ptr %10) #6
  call void @llvm.lifetime.start.p0(i64 8, ptr %11) #6
  %12 = load i64, ptr %6, align 8, !tbaa !40
  %13 = icmp sle i64 4, %12
  br i1 %13, label %14, label %17

14:                                               ; preds = %3
  %15 = load i64, ptr %6, align 8, !tbaa !40
  %16 = icmp sle i64 %15, 4
  br i1 %16, label %22, label %17

17:                                               ; preds = %14, %3
  %18 = load i64, ptr %6, align 8, !tbaa !40
  %19 = call i32 @_PyArg_CheckPositional(ptr noundef @.str.12, i64 noundef %18, i64 noundef 4, i64 noundef 4)
  %20 = icmp ne i32 %19, 0
  br i1 %20, label %22, label %21

21:                                               ; preds = %17
  br label %41

22:                                               ; preds = %17, %14
  %23 = load ptr, ptr %5, align 8, !tbaa !42
  %24 = getelementptr ptr, ptr %23, i64 0
  %25 = load ptr, ptr %24, align 8, !tbaa !3
  store ptr %25, ptr %8, align 8, !tbaa !3
  %26 = load ptr, ptr %5, align 8, !tbaa !42
  %27 = getelementptr ptr, ptr %26, i64 1
  %28 = load ptr, ptr %27, align 8, !tbaa !3
  store ptr %28, ptr %9, align 8, !tbaa !3
  %29 = load ptr, ptr %5, align 8, !tbaa !42
  %30 = getelementptr ptr, ptr %29, i64 2
  %31 = load ptr, ptr %30, align 8, !tbaa !3
  store ptr %31, ptr %10, align 8, !tbaa !3
  %32 = load ptr, ptr %5, align 8, !tbaa !42
  %33 = getelementptr ptr, ptr %32, i64 3
  %34 = load ptr, ptr %33, align 8, !tbaa !3
  store ptr %34, ptr %11, align 8, !tbaa !3
  %35 = load ptr, ptr %4, align 8, !tbaa !3
  %36 = load ptr, ptr %8, align 8, !tbaa !3
  %37 = load ptr, ptr %9, align 8, !tbaa !3
  %38 = load ptr, ptr %10, align 8, !tbaa !3
  %39 = load ptr, ptr %11, align 8, !tbaa !3
  %40 = call ptr @_lsprof_Profiler__ccall_callback_impl(ptr noundef %35, ptr noundef %36, ptr noundef %37, ptr noundef %38, ptr noundef %39)
  store ptr %40, ptr %7, align 8, !tbaa !3
  br label %41

41:                                               ; preds = %22, %21
  %42 = load ptr, ptr %7, align 8, !tbaa !3
  call void @llvm.lifetime.end.p0(i64 8, ptr %11) #6
  call void @llvm.lifetime.end.p0(i64 8, ptr %10) #6
  call void @llvm.lifetime.end.p0(i64 8, ptr %9) #6
  call void @llvm.lifetime.end.p0(i64 8, ptr %8) #6
  call void @llvm.lifetime.end.p0(i64 8, ptr %7) #6
  ret ptr %42
}